
program.elf:     file format elf32-tradlittlemips


Disassembly of section .text:

00000000 <.text>:
   0:	00004025 	or	t0,zero,zero
   4:	3c085000 	lui	t0,0x5000
   8:	25080004 	addiu	t0,t0,4
   c:	00001025 	or	v0,zero,zero

00000010 <config_twi>:
  10:	24020050 	addiu	v0,zero,80
  14:	ad020000 	sw	v0,0(t0)
  18:	25080004 	addiu	t0,t0,4
  1c:	24020001 	addiu	v0,zero,1
  20:	ad020000 	sw	v0,0(t0)
  24:	25080004 	addiu	t0,t0,4
  28:	240200aa 	addiu	v0,zero,170
  2c:	ad020000 	sw	v0,0(t0)
  30:	00004025 	or	t0,zero,zero
  34:	3c085000 	lui	t0,0x5000
  38:	24020001 	addiu	v0,zero,1
  3c:	ad020000 	sw	v0,0(t0)
  40:	24030000 	addiu	v1,zero,0

00000044 <wait1>:
  44:	8d020000 	lw	v0,0(t0)
  48:	1443fffe 	bne	v0,v1,44 <wait1>
  4c:	00000000 	sll	zero,zero,0x0
  50:	24020002 	addiu	v0,zero,2
  54:	ad020000 	sw	v0,0(t0)

00000058 <wait2>:
  58:	8d020000 	lw	v0,0(t0)
  5c:	1443fffe 	bne	v0,v1,58 <wait2>
  60:	00000000 	sll	zero,zero,0x0
  64:	24020000 	addiu	v0,zero,0
  68:	00004025 	or	t0,zero,zero
  6c:	3c085000 	lui	t0,0x5000
  70:	25080004 	addiu	t0,t0,4
  74:	25080004 	addiu	t0,t0,4
  78:	25080004 	addiu	t0,t0,4
  7c:	25080004 	addiu	t0,t0,4
  80:	8d020000 	lw	v0,0(t0)
  84:	8d020000 	lw	v0,0(t0)

00000088 <end>:
  88:	1000ffff 	beqz	zero,88 <end>
  8c:	00000000 	sll	zero,zero,0x0
